target datalayout = "e-m:e-p270:32:32-p271:32:32-p272:64:64-i64:64-i128:128-f80:128-n8:16:32:64-S128"
target triple = "x86_64-pc-linux-gnu"

%struct.coll_env = type { ptr, %struct.coll_env_coll, i32 }
%struct.coll_env_coll = type { %struct.tMPI_Atomic, %struct.tMPI_Atomic, ptr }
%struct.tMPI_Atomic = type { i32, [60 x i8] }
%struct.coll_sync = type { i32, i32, ptr, i32 }
%struct.tmpi_comm_ = type { %struct.tmpi_group_, %struct.tMPI_Barrier_t, ptr, ptr, i32, ptr, ptr, ptr, ptr, %struct.tMPI_Thread_mutex_t, %struct.tMPI_Thread_cond_t, %struct.tMPI_Thread_cond_t, ptr, ptr, ptr, ptr, ptr, ptr, %struct.tMPI_Atomic }
%struct.tmpi_group_ = type { i32, ptr }
%struct.tMPI_Barrier_t = type { %struct.tMPI_Atomic, i32, %struct.tMPI_Atomic }
%struct.tMPI_Thread_mutex_t = type { %struct.tMPI_Atomic, ptr }
%struct.tMPI_Thread_cond_t = type { %struct.tMPI_Atomic, ptr }

; Function Attrs: mustprogress nounwind uwtable
define noundef ptr @_Z12tMPI_Get_cevP10tmpi_comm_iPi(ptr noundef %0, i32 noundef %1, ptr noundef %2) #3 {
  %4 = alloca ptr, align 8
  %5 = alloca i32, align 4
  %6 = alloca ptr, align 8
  %7 = alloca ptr, align 8
  %8 = alloca ptr, align 8
  store ptr %0, ptr %4, align 8, !tbaa !43
  store i32 %1, ptr %5, align 4, !tbaa !8
  store ptr %2, ptr %6, align 8, !tbaa !45
  call void @llvm.lifetime.start.p0(i64 8, ptr %7) #7
  %9 = load ptr, ptr %4, align 8, !tbaa !43
  %10 = getelementptr inbounds nuw %struct.tmpi_comm_, ptr %9, i32 0, i32 6
  %11 = load ptr, ptr %10, align 8, !tbaa !46
  %12 = load i32, ptr %5, align 4, !tbaa !8
  %13 = sext i32 %12 to i64
  %14 = getelementptr inbounds %struct.coll_sync, ptr %11, i64 %13
  store ptr %14, ptr %7, align 8, !tbaa !33
  call void @llvm.lifetime.start.p0(i64 8, ptr %8) #7
  %15 = load ptr, ptr %7, align 8, !tbaa !33
  %16 = getelementptr inbounds nuw %struct.coll_sync, ptr %15, i32 0, i32 0
  %17 = load i32, ptr %16, align 8, !tbaa !35
  %18 = add nsw i32 %17, 1
  store i32 %18, ptr %16, align 8, !tbaa !35
  %19 = load ptr, ptr %7, align 8, !tbaa !33
  %20 = getelementptr inbounds nuw %struct.coll_sync, ptr %19, i32 0, i32 0
  %21 = load i32, ptr %20, align 8, !tbaa !35
  %22 = load ptr, ptr %6, align 8, !tbaa !45
  store i32 %21, ptr %22, align 4, !tbaa !8
  %23 = load ptr, ptr %4, align 8, !tbaa !43
  %24 = getelementptr inbounds nuw %struct.tmpi_comm_, ptr %23, i32 0, i32 5
  %25 = load ptr, ptr %24, align 8, !tbaa !61
  %26 = load ptr, ptr %7, align 8, !tbaa !33
  %27 = getelementptr inbounds nuw %struct.coll_sync, ptr %26, i32 0, i32 0
  %28 = load i32, ptr %27, align 8, !tbaa !35
  %29 = srem i32 %28, 2
  %30 = sext i32 %29 to i64
  %31 = getelementptr inbounds %struct.coll_env, ptr %25, i64 %30
  store ptr %31, ptr %8, align 8, !tbaa !3
  %32 = load ptr, ptr %8, align 8, !tbaa !3
  call void @llvm.lifetime.end.p0(i64 8, ptr %8) #7
  call void @llvm.lifetime.end.p0(i64 8, ptr %7) #7
  ret ptr %32
}