; Function Attrs: mustprogress nofree norecurse nosync nounwind willreturn memory(readwrite, inaccessiblemem: none) uwtable
define noundef ptr @_Z12tMPI_Get_cevP10tmpi_comm_iPi(ptr noundef readonly captures(none) %0, i32 noundef %1, ptr noundef writeonly captures(none) initializes((0, 4)) %2) local_unnamed_addr #4 {
  %4 = getelementptr inbounds nuw i8, ptr %0, i64 184
  %5 = load ptr, ptr %4, align 8, !tbaa !37
  %6 = sext i32 %1 to i64
  %7 = getelementptr inbounds %struct.coll_sync, ptr %5, i64 %6
  %8 = load i32, ptr %7, align 8, !tbaa !29
  %9 = add nsw i32 %8, 1
  store i32 %9, ptr %7, align 8, !tbaa !29
  store i32 %9, ptr %2, align 4, !tbaa !55
  %10 = getelementptr inbounds nuw i8, ptr %0, i64 176
  %11 = load ptr, ptr %10, align 8, !tbaa !56
  %12 = load i32, ptr %7, align 8, !tbaa !29
  %13 = srem i32 %12, 2
  %14 = sext i32 %13 to i64
  %15 = getelementptr inbounds %struct.coll_env, ptr %11, i64 %14
  ret ptr %15
}